target datalayout = "e-m:e-p270:32:32-p271:32:32-p272:64:64-i64:64-i128:128-f80:128-n8:16:32:64-S128"
target triple = "x86_64-pc-linux-gnu"

%struct.redisServer = type { i32, i64, ptr, ptr, ptr, i32, i32, i32, i32, i32, ptr, ptr, ptr, ptr, ptr, i32, i32, i32, i32, i64, i32, i32, i32, i32, ptr, i32, i32, [41 x i8], i32, i64, i32, i32, i32, ptr, ptr, i32, i32, i64, ptr, ptr, ptr, ptr, [2 x i32], i32, i32, i32, i32, i32, i32, [16 x ptr], i32, ptr, ptr, i32, [8 x %struct.connListener], i32, %struct.connListener, ptr, ptr, ptr, ptr, ptr, ptr, ptr, ptr, ptr, ptr, i32, ptr, i32, ptr, [3 x %struct.pause_event], [256 x i8], ptr, i64, i32, i32, [128 x i32], i32, i32, i64, i32, i32, i32, i32, i32, i64, i64, i64, i64, i64, i64, i64, i64, i64, i64, double, i64, i64, i64, i64, i64, i64, i64, i64, i64, i64, i64, i64, i64, i64, i64, i64, i64, i64, i64, i64, i64, double, i64, i64, i64, i64, i64, ptr, i64, i64, i64, %struct.malloc_stats, i64, i64, i64, i64, i64, i64, i64, i64, i64, i64, i64, i64, double, [4 x i64], i64, i64, i64, i64, [128 x i64], [128 x i64], i64, i64, [7 x %struct.anon.0], i64, i64, i64, i64, i64, i64, [4 x %struct.durationStats], i32, i32, i32, i32, i32, i32, i32, i32, i32, i32, i32, i32, i64, i32, i32, i32, i32, i64, i64, i32, i32, i32, i32, i32, ptr, [3 x %struct.clientBufferLimitsConfig], i32, i32, i32, ptr, i32, i32, i32, i32, i32, i32, ptr, ptr, i32, i32, i64, i64, i64, i64, i64, i32, i32, ptr, i32, i32, i64, i64, i64, i64, i64, i32, i32, i64, i32, i32, i32, i32, i32, i32, i32, i32, ptr, i32, i64, i64, i64, i64, i32, ptr, i32, ptr, i32, i32, i32, i64, i64, i64, i64, i32, i32, i32, i32, i32, i32, ptr, i32, i32, ptr, i32, i32, i32, [2 x i32], i32, %struct.redisOpArray, i32, ptr, i32, ptr, i32, i32, i32, i32, i32, i32, i32, [41 x i8], [41 x i8], i64, i64, i64, i64, i32, i32, ptr, i64, i64, %struct.replDataBuf, i64, i64, i32, i32, i32, i32, i32, i32, i32, i32, i32, i64, ptr, i64, ptr, ptr, ptr, i32, i32, ptr, ptr, i32, i32, i32, i64, i64, i64, i64, ptr, ptr, i32, ptr, i64, i32, i32, i32, i64, i32, i32, i32, i32, ptr, i32, i32, [41 x i8], i64, i32, ptr, i32, i32, i64, i64, i32, i32, i32, i32, i32, i64, [3 x i32], i32, i32, i32, [10 x i32], ptr, ptr, i32, i64, ptr, ptr, i32, i32, i32, i32, i64, i64, i64, i64, i64, i64, i64, i64, i64, i64, i32, i32, i64, i64, i32, i64, i64, i64, i64, i64, ptr, ptr, i32, ptr, i32, i32, i32, i32, i64, i64, ptr, ptr, i32, i32, i32, i32, i32, ptr, ptr, ptr, i32, i32, i32, i32, i32, i32, i32, i64, i32, i32, i64, i32, i32, i32, i32, i32, i32, i32, i64, ptr, ptr, i64, ptr, i32, %struct.aclInfo, i32, i64, i32, i32, i32, %struct.redisTLSContextConfig, ptr, ptr, ptr, ptr, ptr, i64, i32, ptr, i32, i32, i32, i64, i32, ptr }
%struct.connListener = type { [16 x i32], i32, ptr, i32, i32, ptr, ptr }
%struct.pause_event = type { i32, i64 }
%struct.malloc_stats = type { i64, i64, i64, i64, i64, i64, i64, i64, i64, i64, i64 }
%struct.anon.0 = type { i64, i64, [16 x i64], i32 }
%struct.durationStats = type { i64, i64, i64 }
%struct.clientBufferLimitsConfig = type { i64, i64, i64 }
%struct.redisOpArray = type { ptr, i32, i32 }
%struct.replDataBuf = type { ptr, i64, i64, i64, i64 }
%struct.aclInfo = type { i64, i64, i64, i64 }
%struct.redisTLSContextConfig = type { ptr, ptr, ptr, ptr, ptr, ptr, ptr, ptr, ptr, ptr, ptr, ptr, i32, i32, i32, i32 }

@server = external global %struct.redisServer, align 8
@bio_threads = internal global [3 x i64] zeroinitializer, align 16
@.str.11 = private unnamed_addr constant [45 x i8] c"Bio worker thread #%lu can not be joined: %s\00", align 1
@.str.12 = private unnamed_addr constant [34 x i8] c"Bio worker thread #%lu terminated\00", align 1

; Function Attrs: nounwind uwtable
define dso_local void @bioKillThreads() #0 {
  %1 = alloca i32, align 4
  %2 = alloca i64, align 8
  call void @llvm.lifetime.start.p0(i64 4, ptr %1) #9
  call void @llvm.lifetime.start.p0(i64 8, ptr %2) #9
  store i64 0, ptr %2, align 8, !tbaa !5
  br label %3

3:                                                ; preds = %52, %0
  %4 = load i64, ptr %2, align 8, !tbaa !5
  %5 = icmp ult i64 %4, 3
  br i1 %5, label %6, label %55

6:                                                ; preds = %3
  %7 = load i64, ptr %2, align 8, !tbaa !5
  %8 = getelementptr inbounds nuw [3 x i64], ptr @bio_threads, i64 0, i64 %7
  %9 = load i64, ptr %8, align 8, !tbaa !5
  %10 = call i64 @pthread_self() #10
  %11 = icmp eq i64 %9, %10
  br i1 %11, label %12, label %13

12:                                               ; preds = %6
  br label %52

13:                                               ; preds = %6
  %14 = load i64, ptr %2, align 8, !tbaa !5
  %15 = getelementptr inbounds nuw [3 x i64], ptr @bio_threads, i64 0, i64 %14
  %16 = load i64, ptr %15, align 8, !tbaa !5
  %17 = icmp ne i64 %16, 0
  br i1 %17, label %18, label %51

18:                                               ; preds = %13
  %19 = load i64, ptr %2, align 8, !tbaa !5
  %20 = getelementptr inbounds nuw [3 x i64], ptr @bio_threads, i64 0, i64 %19
  %21 = load i64, ptr %20, align 8, !tbaa !5
  %22 = call i32 @pthread_cancel(i64 noundef %21)
  %23 = icmp eq i32 %22, 0
  br i1 %23, label %24, label %51

24:                                               ; preds = %18
  %25 = load i64, ptr %2, align 8, !tbaa !5
  %26 = getelementptr inbounds nuw [3 x i64], ptr @bio_threads, i64 0, i64 %25
  %27 = load i64, ptr %26, align 8, !tbaa !5
  %28 = call i32 @pthread_join(i64 noundef %27, ptr noundef null)
  store i32 %28, ptr %1, align 4, !tbaa !42
  %29 = icmp ne i32 %28, 0
  br i1 %29, label %30, label %41

30:                                               ; preds = %24
  br label %31

31:                                               ; preds = %30
  %32 = load i32, ptr getelementptr inbounds nuw (%struct.redisServer, ptr @server, i32 0, i32 159), align 8, !tbaa !14
  %33 = icmp slt i32 3, %32
  br i1 %33, label %34, label %35

34:                                               ; preds = %31
  br label %40

35:                                               ; preds = %31
  %36 = load i64, ptr %2, align 8, !tbaa !5
  %37 = load i32, ptr %1, align 4, !tbaa !42
  %38 = call ptr @strerror(i32 noundef %37) #9
  call void (i32, ptr, ...) @_serverLog(i32 noundef 3, ptr noundef @.str.11, i64 noundef %36, ptr noundef %38)
  br label %39

39:                                               ; preds = %35
  br label %40

40:                                               ; preds = %39, %34
  br label %50

41:                                               ; preds = %24
  br label %42

42:                                               ; preds = %41
  %43 = load i32, ptr getelementptr inbounds nuw (%struct.redisServer, ptr @server, i32 0, i32 159), align 8, !tbaa !14
  %44 = icmp slt i32 3, %43
  br i1 %44, label %45, label %46

45:                                               ; preds = %42
  br label %49

46:                                               ; preds = %42
  %47 = load i64, ptr %2, align 8, !tbaa !5
  call void (i32, ptr, ...) @_serverLog(i32 noundef 3, ptr noundef @.str.12, i64 noundef %47)
  br label %48

48:                                               ; preds = %46
  br label %49

49:                                               ; preds = %48, %45
  br label %50

50:                                               ; preds = %49, %40
  br label %51

51:                                               ; preds = %50, %18, %13
  br label %52

52:                                               ; preds = %51, %12
  %53 = load i64, ptr %2, align 8, !tbaa !5
  %54 = add i64 %53, 1
  store i64 %54, ptr %2, align 8, !tbaa !5
  br label %3, !llvm.loop !71

55:                                               ; preds = %3
  call void @llvm.lifetime.end.p0(i64 8, ptr %2) #9
  call void @llvm.lifetime.end.p0(i64 4, ptr %1) #9
  ret void
}