; Function Attrs: nounwind uwtable
define dso_local void @bioKillThreads() local_unnamed_addr #0 {
  %1 = tail call i64 @pthread_self() #12
  br label %2

2:                                                ; preds = %0, %19
  %.012 = phi i64 [ 0, %0 ], [ %20, %19 ]
  %3 = getelementptr inbounds nuw [3 x i64], ptr @bio_threads, i64 0, i64 %.012
  %4 = load i64, ptr %3, align 8, !tbaa !43
  %5 = icmp eq i64 %4, %1
  %.not = icmp eq i64 %4, 0
  %or.cond = or i1 %.not, %5
  br i1 %or.cond, label %19, label %6

6:                                                ; preds = %2
  %7 = tail call i32 @pthread_cancel(i64 noundef %4) #11
  %8 = icmp eq i32 %7, 0
  br i1 %8, label %9, label %19

9:                                                ; preds = %6
  %10 = load i64, ptr %3, align 8, !tbaa !43
  %11 = tail call i32 @pthread_join(i64 noundef %10, ptr noundef null) #11
  %.not11 = icmp eq i32 %11, 0
  %12 = load i32, ptr getelementptr inbounds nuw (i8, ptr @server, i64 6288), align 8, !tbaa !12
  %13 = icmp sgt i32 %12, 3
  br i1 %.not11, label %17, label %14

14:                                               ; preds = %9
  br i1 %13, label %19, label %15

15:                                               ; preds = %14
  %16 = tail call ptr @strerror(i32 noundef %11) #11
  tail call void (i32, ptr, ...) @_serverLog(i32 noundef 3, ptr noundef nonnull @.str.11, i64 noundef %.012, ptr noundef %16) #11
  br label %19

17:                                               ; preds = %9
  br i1 %13, label %19, label %18

18:                                               ; preds = %17
  tail call void (i32, ptr, ...) @_serverLog(i32 noundef 3, ptr noundef nonnull @.str.12, i64 noundef %.012) #11
  br label %19

19:                                               ; preds = %6, %18, %17, %15, %14, %2
  %20 = add nuw nsw i64 %.012, 1
  %exitcond.not = icmp eq i64 %20, 3
  br i1 %exitcond.not, label %21, label %2, !llvm.loop !65

21:                                               ; preds = %19
  ret void
}